target datalayout = "e-m:e-p270:32:32-p271:32:32-p272:64:64-i64:64-i128:128-f80:128-n8:16:32:64-S128"
target triple = "x86_64-pc-linux-gnu"

%class.OopHandle = type { ptr }
%class.MemoryPool = type <{ ptr, ptr, i32, [4 x i8], i64, i64, i8, [7 x i8], [5 x ptr], i32, [4 x i8], %class.MemoryUsage, %class.MemoryUsage, ptr, ptr, ptr, ptr, %class.OopHandle, i8, [7 x i8] }>
%class.MemoryUsage = type { i64, i64, i64, i64 }
%class.instanceHandle = type { %class.Handle }
%class.Handle = type { ptr }
%"struct.Atomic::LoadImpl.30" = type { i8 }
%"class.AccessInternal::OopLoadProxy" = type { ptr }
%"struct.Atomic::LoadImpl.29" = type { i8 }
%"struct.Atomic::PlatformOrderedLoad" = type { i8 }
%class.ScopedFence = type { ptr }
%"struct.Atomic::PlatformLoad" = type { i8 }

@_ZN14AccessInternal15RuntimeDispatchILm548932EP7oopDescLNS_11BarrierTypeE2EE10_load_funcE = linkonce_odr hidden global ptr @_ZN14AccessInternal15RuntimeDispatchILm548932EP7oopDescLNS_11BarrierTypeE2EE9load_initEPv, comdat, align 8

; Function Attrs: mustprogress nounwind uwtable
define linkonce_odr hidden noundef ptr @_ZN16RawAccessBarrierILm68EE15decode_internalILm68EP7oopDescEENSt9enable_ifIXntsr14AccessInternal24MustConvertCompressedOopIXT_ET0_EE5valueES5_E4typeES5_(ptr noundef %0) #1 comdat align 2 {
  %2 = alloca ptr, align 8
  store ptr %0, ptr %2, align 8
  %3 = load ptr, ptr %2, align 8
  ret ptr %3
}

; Function Attrs: mustprogress nounwind uwtable
define linkonce_odr hidden noundef ptr @_ZN16RawAccessBarrierILm68EE13load_internalILm68EP7oopDescEENSt9enable_ifIXsr12HasDecoratorIXT_EL_ZL12MO_UNORDEREDEEE5valueET0_E4typeEPv(ptr noundef %0) #1 comdat align 2 {
  %2 = alloca ptr, align 8
  store ptr %0, ptr %2, align 8
  %3 = load ptr, ptr %2, align 8
  %4 = load ptr, ptr %3, align 8
  ret ptr %4
}

; Function Attrs: mustprogress nounwind uwtable
define linkonce_odr hidden noundef ptr @_ZN16RawAccessBarrierILm68EE6decodeIP7oopDescEET_N14AccessInternal11EncodedTypeILm68ES4_E4typeE(ptr noundef %0) #1 comdat align 2 {
  %2 = alloca ptr, align 8
  store ptr %0, ptr %2, align 8
  %3 = load ptr, ptr %2, align 8
  %4 = call noundef ptr @_ZN16RawAccessBarrierILm68EE15decode_internalILm68EP7oopDescEENSt9enable_ifIXntsr14AccessInternal24MustConvertCompressedOopIXT_ET0_EE5valueES5_E4typeES5_(ptr noundef %3)
  ret ptr %4
}

; Function Attrs: mustprogress nounwind uwtable
define linkonce_odr hidden noundef ptr @_ZN16RawAccessBarrierILm68EE4loadIP7oopDescEET_Pv(ptr noundef %0) #1 comdat align 2 {
  %2 = alloca ptr, align 8
  store ptr %0, ptr %2, align 8
  %3 = load ptr, ptr %2, align 8
  %4 = call noundef ptr @_ZN16RawAccessBarrierILm68EE13load_internalILm68EP7oopDescEENSt9enable_ifIXsr12HasDecoratorIXT_EL_ZL12MO_UNORDEREDEEE5valueET0_E4typeEPv(ptr noundef %3)
  ret ptr %4
}

; Function Attrs: mustprogress nounwind uwtable
define internal void @_ZL16compiler_barrierv() #1 {
  call void asm sideeffect "", "~{memory},~{dirflag},~{fpsr},~{flags}"() #8, !srcloc !10
  ret void
}

; Function Attrs: mustprogress nounwind uwtable
define linkonce_odr hidden noundef ptr @_ZN16RawAccessBarrierILm68EE8oop_loadIP7oopDescEET_Pv(ptr noundef %0) #1 comdat align 2 {
  %2 = alloca ptr, align 8
  %3 = alloca ptr, align 8
  store ptr %0, ptr %2, align 8
  %4 = load ptr, ptr %2, align 8
  %5 = call noundef ptr @_ZN16RawAccessBarrierILm68EE4loadIP7oopDescEET_Pv(ptr noundef %4)
  store ptr %5, ptr %3, align 8
  %6 = load ptr, ptr %3, align 8
  %7 = call noundef ptr @_ZN16RawAccessBarrierILm68EE6decodeIP7oopDescEET_N14AccessInternal11EncodedTypeILm68ES4_E4typeE(ptr noundef %6)
  ret ptr %7
}

; Function Attrs: mustprogress nounwind uwtable
define linkonce_odr hidden void @_ZN11OrderAccess7acquireEv() #1 comdat align 2 {
  call void @_ZL16compiler_barrierv()
  ret void
}

; Function Attrs: mustprogress nounwind uwtable
define linkonce_odr hidden noundef ptr @_ZN14AccessInternal15RuntimeDispatchILm548932EP7oopDescLNS_11BarrierTypeE2EE4loadEPv(ptr noundef %0) #1 comdat align 2 {
  %2 = alloca ptr, align 8
  store ptr %0, ptr %2, align 8
  %3 = load ptr, ptr @_ZN14AccessInternal15RuntimeDispatchILm548932EP7oopDescLNS_11BarrierTypeE2EE10_load_funcE, align 8
  %4 = load ptr, ptr %2, align 8
  %5 = call noundef ptr %3(ptr noundef %4)
  ret ptr %5
}

; Function Attrs: mustprogress nounwind uwtable
define linkonce_odr hidden noundef ptr @_ZN14AccessInternal18PreRuntimeDispatch4loadILm550980EP7oopDescEENSt9enable_ifIXaasr12HasDecoratorIXT_EL_ZL6AS_RAWEEE5valuesr14CanHardwireRawIXT_EEE5valueET0_E4typeEPv(ptr noundef %0) #1 comdat align 2 {
  %2 = alloca ptr, align 8
  store ptr %0, ptr %2, align 8
  %3 = load ptr, ptr %2, align 8
  %4 = call noundef ptr @_ZN16RawAccessBarrierILm68EE8oop_loadIP7oopDescEET_Pv(ptr noundef %3)
  ret ptr %4
}

; Function Attrs: mustprogress nounwind uwtable
define linkonce_odr hidden noundef zeroext i1 @_ZN14AccessInternal18PreRuntimeDispatch22is_hardwired_primitiveILm548932EEEbv() #1 comdat align 2 {
  ret i1 false
}

; Function Attrs: mustprogress nounwind uwtable
define linkonce_odr hidden void @_ZN18ScopedFenceGeneralIL15ScopedFenceType0EE7postfixEv(ptr noundef nonnull align 1 dereferenceable(1) %0) #1 comdat align 2 {
  %2 = alloca ptr, align 8
  store ptr %0, ptr %2, align 8
  call void @_ZN11OrderAccess7acquireEv()
  ret void
}

; Function Attrs: mustprogress nounwind uwtable
define linkonce_odr hidden noundef zeroext i1 @_ZNK6Atomic12PlatformLoadILm1EEclIbEET_PVKS3_(ptr noundef nonnull align 1 dereferenceable(1) %0, ptr noundef %1) #1 comdat align 2 {
  %3 = alloca ptr, align 8
  %4 = alloca ptr, align 8
  store ptr %0, ptr %3, align 8
  store ptr %1, ptr %4, align 8
  %5 = load ptr, ptr %4, align 8
  %6 = load volatile i8, ptr %5, align 1
  %7 = trunc i8 %6 to i1
  ret i1 %7
}

; Function Attrs: mustprogress nounwind uwtable
define linkonce_odr hidden void @_ZN18ScopedFenceGeneralIL15ScopedFenceType0EE6prefixEv(ptr noundef nonnull align 1 dereferenceable(1) %0) #1 comdat align 2 {
  %2 = alloca ptr, align 8
  store ptr %0, ptr %2, align 8
  ret void
}

; Function Attrs: mustprogress nounwind uwtable
define linkonce_odr hidden noundef ptr @_ZN14AccessInternal18PreRuntimeDispatch4loadILm548932EP7oopDescEENSt9enable_ifIXntsr12HasDecoratorIXT_EL_ZL6AS_RAWEEE5valueET0_E4typeEPv(ptr noundef %0) #1 comdat align 2 {
  %2 = alloca ptr, align 8
  %3 = alloca ptr, align 8
  %4 = alloca i64, align 8
  store ptr %0, ptr %3, align 8
  %5 = call noundef zeroext i1 @_ZN14AccessInternal18PreRuntimeDispatch22is_hardwired_primitiveILm548932EEEbv()
  br i1 %5, label %6, label %9

6:                                                ; preds = %1
  store i64 550980, ptr %4, align 8
  %7 = load ptr, ptr %3, align 8
  %8 = call noundef ptr @_ZN14AccessInternal18PreRuntimeDispatch4loadILm550980EP7oopDescEENSt9enable_ifIXaasr12HasDecoratorIXT_EL_ZL6AS_RAWEEE5valuesr14CanHardwireRawIXT_EEE5valueET0_E4typeEPv(ptr noundef %7)
  store ptr %8, ptr %2, align 8
  br label %12

9:                                                ; preds = %1
  %10 = load ptr, ptr %3, align 8
  %11 = call noundef ptr @_ZN14AccessInternal15RuntimeDispatchILm548932EP7oopDescLNS_11BarrierTypeE2EE4loadEPv(ptr noundef %10)
  store ptr %11, ptr %2, align 8
  br label %12

12:                                               ; preds = %9, %6
  %13 = load ptr, ptr %2, align 8
  ret ptr %13
}

; Function Attrs: mustprogress nounwind uwtable
define linkonce_odr hidden void @_ZN11ScopedFenceIL15ScopedFenceType0EE7postfixEv(ptr noundef nonnull align 8 dereferenceable(8) %0) #1 comdat align 2 {
  %2 = alloca ptr, align 8
  store ptr %0, ptr %2, align 8
  %3 = load ptr, ptr %2, align 8
  call void @_ZN18ScopedFenceGeneralIL15ScopedFenceType0EE7postfixEv(ptr noundef nonnull align 1 dereferenceable(1) %3)
  ret void
}

; Function Attrs: mustprogress nounwind uwtable
define linkonce_odr hidden noundef zeroext i1 @_ZNK6Atomic8LoadImplIbNS_12PlatformLoadILm1EEEvEclEPVKb(ptr noundef nonnull align 1 dereferenceable(1) %0, ptr noundef %1) #1 comdat align 2 {
  %3 = alloca ptr, align 8
  %4 = alloca ptr, align 8
  %5 = alloca %"struct.Atomic::PlatformLoad", align 1
  store ptr %0, ptr %3, align 8
  store ptr %1, ptr %4, align 8
  %6 = load ptr, ptr %4, align 8
  %7 = call noundef zeroext i1 @_ZNK6Atomic12PlatformLoadILm1EEclIbEET_PVKS3_(ptr noundef nonnull align 1 dereferenceable(1) %5, ptr noundef %6)
  ret i1 %7
}

; Function Attrs: mustprogress nounwind uwtable
define linkonce_odr hidden void @_ZN11ScopedFenceIL15ScopedFenceType0EE6prefixEv(ptr noundef nonnull align 8 dereferenceable(8) %0) #1 comdat align 2 {
  %2 = alloca ptr, align 8
  store ptr %0, ptr %2, align 8
  %3 = load ptr, ptr %2, align 8
  call void @_ZN18ScopedFenceGeneralIL15ScopedFenceType0EE6prefixEv(ptr noundef nonnull align 1 dereferenceable(1) %3)
  ret void
}

; Function Attrs: mustprogress nounwind uwtable
define linkonce_odr hidden noundef ptr @_ZN14AccessInternal17load_reduce_typesILm548932EP7oopDescEET0_PS3_(ptr noundef %0) #1 comdat {
  %2 = alloca ptr, align 8
  store ptr %0, ptr %2, align 8
  %3 = load ptr, ptr %2, align 8
  %4 = call noundef ptr @_ZN14AccessInternal18PreRuntimeDispatch4loadILm548932EP7oopDescEENSt9enable_ifIXntsr12HasDecoratorIXT_EL_ZL6AS_RAWEEE5valueET0_E4typeEPv(ptr noundef %3)
  ret ptr %4
}

; Function Attrs: mustprogress nounwind uwtable
define internal void @_ZN14AccessInternalL12verify_typesILm524292EP7oopDescEEvv() #1 {
  ret void
}

; Function Attrs: mustprogress nounwind uwtable
define linkonce_odr hidden void @_ZN6AccessILm524288EE17verify_decoratorsILm16645568EEEvv() #1 comdat align 2 {
  %1 = alloca i64, align 8
  %2 = alloca i64, align 8
  %3 = alloca i64, align 8
  %4 = alloca i64, align 8
  store i64 0, ptr %1, align 8
  store i64 0, ptr %2, align 8
  store i64 0, ptr %3, align 8
  store i64 524288, ptr %4, align 8
  ret void
}

; Function Attrs: mustprogress nounwind uwtable
define linkonce_odr hidden void @_ZN11ScopedFenceIL15ScopedFenceType0EED2Ev(ptr noundef nonnull align 8 dereferenceable(8) %0) unnamed_addr #1 comdat align 2 {
  %2 = alloca ptr, align 8
  store ptr %0, ptr %2, align 8
  %3 = load ptr, ptr %2, align 8
  call void @_ZN11ScopedFenceIL15ScopedFenceType0EE7postfixEv(ptr noundef nonnull align 8 dereferenceable(8) %3)
  ret void
}

; Function Attrs: mustprogress nounwind uwtable
define linkonce_odr hidden noundef zeroext i1 @_ZN6Atomic4loadIbEET_PVKS1_(ptr noundef %0) #1 comdat align 2 {
  %2 = alloca ptr, align 8
  %3 = alloca %"struct.Atomic::LoadImpl.29", align 1
  store ptr %0, ptr %2, align 8
  %4 = load ptr, ptr %2, align 8
  %5 = call noundef zeroext i1 @_ZNK6Atomic8LoadImplIbNS_12PlatformLoadILm1EEEvEclEPVKb(ptr noundef nonnull align 1 dereferenceable(1) %3, ptr noundef %4)
  ret i1 %5
}

; Function Attrs: mustprogress nounwind uwtable
define linkonce_odr hidden void @_ZN11ScopedFenceIL15ScopedFenceType0EEC2EPv(ptr noundef nonnull align 8 dereferenceable(8) %0, ptr noundef %1) unnamed_addr #1 comdat align 2 {
  %3 = alloca ptr, align 8
  %4 = alloca ptr, align 8
  store ptr %0, ptr %3, align 8
  store ptr %1, ptr %4, align 8
  %5 = load ptr, ptr %3, align 8
  %6 = getelementptr inbounds %class.ScopedFence, ptr %5, i32 0, i32 0
  %7 = load ptr, ptr %4, align 8
  store ptr %7, ptr %6, align 8
  call void @_ZN11ScopedFenceIL15ScopedFenceType0EE6prefixEv(ptr noundef nonnull align 8 dereferenceable(8) %5)
  ret void
}

; Function Attrs: mustprogress nounwind uwtable
define linkonce_odr hidden noundef ptr @_ZN14AccessInternal4loadILm524292EP7oopDescS2_EET1_PT0_(ptr noundef %0) #1 comdat {
  %2 = alloca ptr, align 8
  %3 = alloca i64, align 8
  store ptr %0, ptr %2, align 8
  call void @_ZN14AccessInternalL12verify_typesILm524292EP7oopDescEEvv()
  store i64 548932, ptr %3, align 8
  %4 = load ptr, ptr %2, align 8
  %5 = call noundef ptr @_ZN14AccessInternal17load_reduce_typesILm548932EP7oopDescEET0_PS3_(ptr noundef %4)
  ret ptr %5
}

; Function Attrs: mustprogress nounwind uwtable
define linkonce_odr hidden void @_ZN14AccessInternal12OopLoadProxyIP7oopDescLm524288EEC2EPS2_(ptr noundef nonnull align 8 dereferenceable(8) %0, ptr noundef %1) unnamed_addr #1 comdat align 2 {
  %3 = alloca ptr, align 8
  %4 = alloca ptr, align 8
  store ptr %0, ptr %3, align 8
  store ptr %1, ptr %4, align 8
  %5 = load ptr, ptr %3, align 8
  %6 = getelementptr inbounds %"class.AccessInternal::OopLoadProxy", ptr %5, i32 0, i32 0
  %7 = load ptr, ptr %4, align 8
  store ptr %7, ptr %6, align 8
  ret void
}

; Function Attrs: mustprogress nounwind uwtable
define linkonce_odr hidden void @_ZN6AccessILm524288EE21verify_oop_decoratorsILm1472EEEvv() #1 comdat align 2 {
  %1 = alloca i64, align 8
  store i64 16644096, ptr %1, align 8
  call void @_ZN6AccessILm524288EE17verify_decoratorsILm16645568EEEvv()
  ret void
}

; Function Attrs: mustprogress nounwind uwtable
define linkonce_odr hidden noundef ptr @_ZNK6Handle3objEv(ptr noundef nonnull align 8 dereferenceable(8) %0) #1 comdat align 2 {
  %2 = alloca ptr, align 8
  store ptr %0, ptr %2, align 8
  %3 = load ptr, ptr %2, align 8
  %4 = getelementptr inbounds %class.Handle, ptr %3, i32 0, i32 0
  %5 = load ptr, ptr %4, align 8
  %6 = icmp eq ptr %5, null
  br i1 %6, label %7, label %8

7:                                                ; preds = %1
  br label %12

8:                                                ; preds = %1
  %9 = getelementptr inbounds %class.Handle, ptr %3, i32 0, i32 0
  %10 = load ptr, ptr %9, align 8
  %11 = load ptr, ptr %10, align 8
  br label %12

12:                                               ; preds = %8, %7
  %13 = phi ptr [ null, %7 ], [ %11, %8 ]
  ret ptr %13
}

; Function Attrs: mustprogress nounwind uwtable
define linkonce_odr hidden noundef zeroext i1 @_ZNK6Atomic19PlatformOrderedLoadILm1EL15ScopedFenceType0EEclIbEET_PVKS4_(ptr noundef nonnull align 1 dereferenceable(1) %0, ptr noundef %1) #1 comdat align 2 {
  %3 = alloca ptr, align 8
  %4 = alloca ptr, align 8
  %5 = alloca %class.ScopedFence, align 8
  store ptr %0, ptr %3, align 8
  store ptr %1, ptr %4, align 8
  %6 = load ptr, ptr %4, align 8
  call void @_ZN11ScopedFenceIL15ScopedFenceType0EEC2EPv(ptr noundef nonnull align 8 dereferenceable(8) %5, ptr noundef %6)
  %7 = load ptr, ptr %4, align 8
  %8 = call noundef zeroext i1 @_ZN6Atomic4loadIbEET_PVKS1_(ptr noundef %7)
  call void @_ZN11ScopedFenceIL15ScopedFenceType0EED2Ev(ptr noundef nonnull align 8 dereferenceable(8) %5) #8
  ret i1 %8
}

; Function Attrs: mustprogress nounwind uwtable
define linkonce_odr hidden noundef ptr @_ZN14AccessInternal12OopLoadProxyIP7oopDescLm524288EEcvS2_Ev(ptr noundef nonnull align 8 dereferenceable(8) %0) #1 comdat align 2 {
  %2 = alloca ptr, align 8
  store ptr %0, ptr %2, align 8
  %3 = load ptr, ptr %2, align 8
  %4 = getelementptr inbounds %"class.AccessInternal::OopLoadProxy", ptr %3, i32 0, i32 0
  %5 = load ptr, ptr %4, align 8
  %6 = call noundef ptr @_ZN14AccessInternal4loadILm524292EP7oopDescS2_EET1_PT0_(ptr noundef %5)
  ret ptr %6
}

; Function Attrs: mustprogress nounwind uwtable
define linkonce_odr hidden ptr @_ZN6AccessILm524288EE8oop_loadIP7oopDescEEN14AccessInternal12OopLoadProxyIT_Lm524288EEEPS6_(ptr noundef %0) #1 comdat align 2 {
  %2 = alloca %"class.AccessInternal::OopLoadProxy", align 8
  %3 = alloca ptr, align 8
  store ptr %0, ptr %3, align 8
  call void @_ZN6AccessILm524288EE21verify_oop_decoratorsILm1472EEEvv()
  %4 = load ptr, ptr %3, align 8
  call void @_ZN14AccessInternal12OopLoadProxyIP7oopDescLm524288EEC2EPS2_(ptr noundef nonnull align 8 dereferenceable(8) %2, ptr noundef %4)
  %5 = getelementptr inbounds %"class.AccessInternal::OopLoadProxy", ptr %2, i32 0, i32 0
  %6 = load ptr, ptr %5, align 8
  ret ptr %6
}

; Function Attrs: mustprogress nounwind uwtable
define linkonce_odr hidden noundef ptr @_ZNK14instanceHandle3objEv(ptr noundef nonnull align 8 dereferenceable(8) %0) #1 comdat align 2 {
  %2 = alloca ptr, align 8
  store ptr %0, ptr %2, align 8
  %3 = load ptr, ptr %2, align 8
  %4 = call noundef ptr @_ZNK6Handle3objEv(ptr noundef nonnull align 8 dereferenceable(8) %3)
  ret ptr %4
}

; Function Attrs: mustprogress nounwind uwtable
define linkonce_odr hidden noundef zeroext i1 @_ZNK6Atomic8LoadImplIbNS_19PlatformOrderedLoadILm1EL15ScopedFenceType0EEEvEclEPVKb(ptr noundef nonnull align 1 dereferenceable(1) %0, ptr noundef %1) #1 comdat align 2 {
  %3 = alloca ptr, align 8
  %4 = alloca ptr, align 8
  %5 = alloca %"struct.Atomic::PlatformOrderedLoad", align 1
  store ptr %0, ptr %3, align 8
  store ptr %1, ptr %4, align 8
  %6 = load ptr, ptr %4, align 8
  %7 = call noundef zeroext i1 @_ZNK6Atomic19PlatformOrderedLoadILm1EL15ScopedFenceType0EEclIbEET_PVKS4_(ptr noundef nonnull align 1 dereferenceable(1) %5, ptr noundef %6)
  ret i1 %7
}

; Function Attrs: mustprogress nounwind uwtable
define linkonce_odr hidden noundef ptr @_ZNK9OopHandle7resolveEv(ptr noundef nonnull align 8 dereferenceable(8) %0) #1 comdat align 2 {
  %2 = alloca ptr, align 8
  %3 = alloca %"class.AccessInternal::OopLoadProxy", align 8
  store ptr %0, ptr %2, align 8
  %4 = load ptr, ptr %2, align 8
  %5 = getelementptr inbounds %class.OopHandle, ptr %4, i32 0, i32 0
  %6 = load ptr, ptr %5, align 8
  %7 = icmp eq ptr %6, null
  br i1 %7, label %8, label %9

8:                                                ; preds = %1
  br label %15

9:                                                ; preds = %1
  %10 = getelementptr inbounds %class.OopHandle, ptr %4, i32 0, i32 0
  %11 = load ptr, ptr %10, align 8
  %12 = call ptr @_ZN6AccessILm524288EE8oop_loadIP7oopDescEEN14AccessInternal12OopLoadProxyIT_Lm524288EEEPS6_(ptr noundef %11)
  %13 = getelementptr inbounds %"class.AccessInternal::OopLoadProxy", ptr %3, i32 0, i32 0
  store ptr %12, ptr %13, align 8
  %14 = call noundef ptr @_ZN14AccessInternal12OopLoadProxyIP7oopDescLm524288EEcvS2_Ev(ptr noundef nonnull align 8 dereferenceable(8) %3)
  br label %15

15:                                               ; preds = %9, %8
  %16 = phi ptr [ null, %8 ], [ %14, %9 ]
  ret ptr %16
}

; Function Attrs: mustprogress nounwind uwtable
define linkonce_odr hidden noundef ptr @_ZNK14instanceHandleclEv(ptr noundef nonnull align 8 dereferenceable(8) %0) #1 comdat align 2 {
  %2 = alloca ptr, align 8
  store ptr %0, ptr %2, align 8
  %3 = load ptr, ptr %2, align 8
  %4 = call noundef ptr @_ZNK14instanceHandle3objEv(ptr noundef nonnull align 8 dereferenceable(8) %3)
  ret ptr %4
}

; Function Attrs: mustprogress nounwind uwtable
define linkonce_odr hidden noundef zeroext i1 @_ZN6Atomic12load_acquireIbEET_PVKS1_(ptr noundef %0) #1 comdat align 2 {
  %2 = alloca ptr, align 8
  %3 = alloca %"struct.Atomic::LoadImpl.30", align 1
  store ptr %0, ptr %2, align 8
  %4 = load ptr, ptr %2, align 8
  %5 = call noundef zeroext i1 @_ZNK6Atomic8LoadImplIbNS_19PlatformOrderedLoadILm1EL15ScopedFenceType0EEEvEclEPVKb(ptr noundef nonnull align 1 dereferenceable(1) %3, ptr noundef %4)
  ret i1 %5
}

; Function Attrs: mustprogress nounwind uwtable
define hidden noundef zeroext i1 @_ZNK10MemoryPool7is_poolE14instanceHandle(ptr noundef nonnull align 8 dereferenceable(201) %0, ptr %1) #1 align 2 {
  %3 = alloca i1, align 1
  %4 = alloca %class.instanceHandle, align 8
  %5 = alloca ptr, align 8
  %6 = getelementptr inbounds %class.instanceHandle, ptr %4, i32 0, i32 0
  %7 = getelementptr inbounds %class.Handle, ptr %6, i32 0, i32 0
  store ptr %1, ptr %7, align 8
  store ptr %0, ptr %5, align 8
  %8 = load ptr, ptr %5, align 8
  %9 = getelementptr inbounds %class.MemoryPool, ptr %8, i32 0, i32 18
  %10 = call noundef zeroext i1 @_ZN6Atomic12load_acquireIbEET_PVKS1_(ptr noundef %9)
  br i1 %10, label %11, label %16

11:                                               ; preds = %2
  %12 = call noundef ptr @_ZNK14instanceHandleclEv(ptr noundef nonnull align 8 dereferenceable(8) %4)
  %13 = getelementptr inbounds %class.MemoryPool, ptr %8, i32 0, i32 17
  %14 = call noundef ptr @_ZNK9OopHandle7resolveEv(ptr noundef nonnull align 8 dereferenceable(8) %13)
  %15 = icmp eq ptr %12, %14
  store i1 %15, ptr %3, align 1
  br label %17

16:                                               ; preds = %2
  store i1 false, ptr %3, align 1
  br label %17

17:                                               ; preds = %16, %11
  %18 = load i1, ptr %3, align 1
  ret i1 %18
}